#include <math.h>
#include <stdio.h>
#include <stdlib.h>
#include <string.h>

int main()
{
   int i,j,n,m;
   char c[100];
   scanf("%d",&n);
   for (i=0;i<n;i++){
       scanf("%s",c);
       m=strlen(c);
       if (((c[m-1]=='r')&&(c[m-2]=='e'))||((c[m-1]=='y')&&(c[m-2]=='l'))){
                m=m-2;
       }
       else {
	        m=m-3;
	   }
       for (j=0;j<m;j++){
	       printf("%c",c[j]);
	   }
       printf("\n");
   }
 return 0;
}